(lp1
(istructs
d_struct
p2
(dp3
S'path'
p4
V/home/ganger/pic/pic/IMG_0654.JPG
p5
sS'command'
p6
V1
sS'name'
p7
V1
sS'key'
p8
V1
sS'order'
p9
I1
sba(istructs
d_struct
p10
(dp11
g4
V/home/ganger/pic/pic/IMG_0639.JPG
p12
sg6
V2
sg7
V2
sg8
V2
sg9
I2
sba.